target datalayout = "e-m:e-p270:32:32-p271:32:32-p272:64:64-i64:64-i128:128-f80:128-n8:16:32:64-S128"
target triple = "x86_64-pc-linux-gnu"

%struct.JsonLexContext = type { ptr, i64, i32, ptr, ptr, ptr, i8, i32, i32, i32, i32, ptr, ptr, ptr, i8, ptr, ptr }

; Function Attrs: nounwind uwtable
define zeroext i1 @IsValidJsonNumber(ptr noundef %0, i64 noundef %1) #1 {
  %3 = alloca i1, align 1
  %4 = alloca ptr, align 8
  %5 = alloca i64, align 8
  %6 = alloca i8, align 1
  %7 = alloca i64, align 8
  %8 = alloca %struct.JsonLexContext, align 8
  %9 = alloca i32, align 4
  store ptr %0, ptr %4, align 8
  store i64 %1, ptr %5, align 8
  call void @llvm.lifetime.start.p0(i64 1, ptr %6) #15
  call void @llvm.lifetime.start.p0(i64 8, ptr %7) #15
  call void @llvm.lifetime.start.p0(i64 120, ptr %8) #15
  call void @llvm.memset.p0.i64(ptr align 8 %8, i8 0, i64 120, i1 false)
  %10 = load i64, ptr %5, align 8
  %11 = icmp ule i64 %10, 0
  br i1 %11, label %12, label %13

12:                                               ; preds = %2
  store i1 false, ptr %3, align 1
  store i32 1, ptr %9, align 4
  br label %46

13:                                               ; preds = %2
  %14 = load ptr, ptr %4, align 8
  %15 = load i8, ptr %14, align 1
  %16 = sext i8 %15 to i32
  %17 = icmp eq i32 %16, 45
  br i1 %17, label %18, label %25

18:                                               ; preds = %13
  %19 = load ptr, ptr %4, align 8
  %20 = getelementptr inbounds i8, ptr %19, i64 1
  %21 = getelementptr inbounds nuw %struct.JsonLexContext, ptr %8, i32 0, i32 0
  store ptr %20, ptr %21, align 8
  %22 = load i64, ptr %5, align 8
  %23 = sub i64 %22, 1
  %24 = getelementptr inbounds nuw %struct.JsonLexContext, ptr %8, i32 0, i32 1
  store i64 %23, ptr %24, align 8
  br label %30

25:                                               ; preds = %13
  %26 = load ptr, ptr %4, align 8
  %27 = getelementptr inbounds nuw %struct.JsonLexContext, ptr %8, i32 0, i32 0
  store ptr %26, ptr %27, align 8
  %28 = load i64, ptr %5, align 8
  %29 = getelementptr inbounds nuw %struct.JsonLexContext, ptr %8, i32 0, i32 1
  store i64 %28, ptr %29, align 8
  br label %30

30:                                               ; preds = %25, %18
  %31 = getelementptr inbounds nuw %struct.JsonLexContext, ptr %8, i32 0, i32 0
  %32 = load ptr, ptr %31, align 8
  %33 = getelementptr inbounds nuw %struct.JsonLexContext, ptr %8, i32 0, i32 3
  store ptr %32, ptr %33, align 8
  %34 = getelementptr inbounds nuw %struct.JsonLexContext, ptr %8, i32 0, i32 0
  %35 = load ptr, ptr %34, align 8
  %36 = call i32 @json_lex_number(ptr noundef %8, ptr noundef %35, ptr noundef %6, ptr noundef %7)
  %37 = load i8, ptr %6, align 1, !range !3, !noundef !4
  %38 = trunc i8 %37 to i1
  br i1 %38, label %44, label %39

39:                                               ; preds = %30
  %40 = load i64, ptr %7, align 8
  %41 = getelementptr inbounds nuw %struct.JsonLexContext, ptr %8, i32 0, i32 1
  %42 = load i64, ptr %41, align 8
  %43 = icmp eq i64 %40, %42
  br label %44

44:                                               ; preds = %39, %30
  %45 = phi i1 [ false, %30 ], [ %43, %39 ]
  store i1 %45, ptr %3, align 1
  store i32 1, ptr %9, align 4
  br label %46

46:                                               ; preds = %44, %12
  call void @llvm.lifetime.end.p0(i64 120, ptr %8) #15
  call void @llvm.lifetime.end.p0(i64 8, ptr %7) #15
  call void @llvm.lifetime.end.p0(i64 1, ptr %6) #15
  %47 = load i1, ptr %3, align 1
  ret i1 %47
}