; Function Attrs: nounwind uwtable
define zeroext i1 @IsValidJsonNumber(ptr noundef %0, i64 noundef %1) local_unnamed_addr #1 {
  %3 = alloca i8, align 1
  %4 = alloca i64, align 8
  %5 = alloca %struct.JsonLexContext, align 8
  call void @llvm.lifetime.start.p0(i64 1, ptr nonnull %3) #16
  call void @llvm.lifetime.start.p0(i64 8, ptr nonnull %4) #16
  call void @llvm.lifetime.start.p0(i64 120, ptr nonnull %5) #16
  %6 = getelementptr inbounds nuw i8, ptr %5, i64 16
  call void @llvm.memset.p0.i64(ptr noundef nonnull align 8 dereferenceable(120) %6, i8 0, i64 104, i1 false)
  %7 = icmp eq i64 %1, 0
  br i1 %7, label %21, label %8

8:                                                ; preds = %2
  %9 = load i8, ptr %0, align 1
  %10 = icmp eq i8 %9, 45
  %.sink7.idx = zext i1 %10 to i64
  %.sink7 = getelementptr inbounds nuw i8, ptr %0, i64 %.sink7.idx
  %11 = sext i1 %10 to i64
  %.sink = add i64 %1, %11
  store ptr %.sink7, ptr %5, align 8
  %12 = getelementptr inbounds nuw i8, ptr %5, i64 8
  store i64 %.sink, ptr %12, align 8
  %13 = getelementptr inbounds nuw i8, ptr %5, i64 24
  store ptr %.sink7, ptr %13, align 8
  %14 = call fastcc i32 @json_lex_number(ptr noundef nonnull %5, ptr noundef nonnull %.sink7, ptr noundef nonnull %3, ptr noundef nonnull %4)
  %15 = load i8, ptr %3, align 1, !range !3, !noundef !4
  %16 = trunc nuw i8 %15 to i1
  %17 = load i64, ptr %4, align 8
  %18 = load i64, ptr %12, align 8
  %19 = icmp eq i64 %17, %18
  %not. = xor i1 %16, true
  %20 = select i1 %not., i1 %19, i1 false
  br label %21

21:                                               ; preds = %2, %8
  %.0 = phi i1 [ %20, %8 ], [ false, %2 ]
  call void @llvm.lifetime.end.p0(i64 120, ptr nonnull %5) #16
  call void @llvm.lifetime.end.p0(i64 8, ptr nonnull %4) #16
  call void @llvm.lifetime.end.p0(i64 1, ptr nonnull %3) #16
  ret i1 %.0
}